; Function Attrs: nounwind uwtable
define internal ptr @_operator_setitem(ptr readnone captures(none) %0, ptr noundef readonly captures(none) %1, i64 noundef %2) #0 {
  %or.cond = icmp eq i64 %2, 3
  br i1 %or.cond, label %6, label %4

4:                                                ; preds = %3
  %5 = tail call i32 @_PyArg_CheckPositional(ptr noundef nonnull @.str.43, i64 noundef %2, i64 noundef 3, i64 noundef 3) #7
  %.not = icmp eq i32 %5, 0
  br i1 %.not, label %14, label %6

6:                                                ; preds = %3, %4
  %7 = load ptr, ptr %1, align 8, !tbaa !17
  %8 = getelementptr i8, ptr %1, i64 8
  %9 = load ptr, ptr %8, align 8, !tbaa !17
  %10 = getelementptr i8, ptr %1, i64 16
  %11 = load ptr, ptr %10, align 8, !tbaa !17
  %12 = tail call i32 @PyObject_SetItem(ptr noundef %7, ptr noundef %9, ptr noundef %11) #7
  %13 = icmp eq i32 %12, -1
  %._Py_NoneStruct.i = select i1 %13, ptr null, ptr @_Py_NoneStruct
  br label %14

14:                                               ; preds = %4, %6
  %.0 = phi ptr [ %._Py_NoneStruct.i, %6 ], [ null, %4 ]
  ret ptr %.0
}